; Function Attrs: mustprogress uwtable
define dso_local void @_ZN4Luau7CodeGen3A6418AssemblyBuilderA646ins_4sENS1_11RegisterA64EhS3_h(ptr noundef nonnull align 8 dereferenceable(176) %0, i8 %1, i8 noundef zeroext %2, i8 %3, i8 noundef zeroext %4) local_unnamed_addr #0 align 2 {
  %6 = getelementptr inbounds nuw i8, ptr %0, i64 80
  %7 = load i8, ptr %6, align 8, !tbaa !14, !range !46, !noundef !47
  %8 = trunc nuw i8 %7 to i1
  %9 = lshr i8 %1, 3
  %10 = zext nneg i8 %9 to i32
  %11 = zext i8 %4 to i32
  br i1 %8, label %12, label %._crit_edge

._crit_edge:                                      ; preds = %5
  %.pre10 = lshr i8 %3, 3
  %.pre12 = zext nneg i8 %.pre10 to i32
  %.pre14 = zext i8 %2 to i32
  br label %16

12:                                               ; preds = %5
  %13 = zext i8 %2 to i32
  %14 = lshr i8 %3, 3
  %15 = zext nneg i8 %14 to i32
  tail call void (ptr, ptr, ...) @_ZN4Luau7CodeGen3A6418AssemblyBuilderA649logAppendEPKcz(ptr noundef nonnull align 8 dereferenceable(176) %0, ptr noundef nonnull @.str.62, ptr noundef nonnull @.str.61, i32 noundef %10, i32 noundef %13, i32 noundef %15, i32 noundef %11)
  br label %16

16:                                               ; preds = %._crit_edge, %12
  %.pre-phi15 = phi i32 [ %.pre14, %._crit_edge ], [ %13, %12 ]
  %.pre-phi13 = phi i32 [ %.pre12, %._crit_edge ], [ %15, %12 ]
  %17 = shl nuw nsw i32 %.pre-phi13, 5
  %18 = shl nuw nsw i32 %.pre-phi15, 19
  %19 = or disjoint i32 %17, %18
  %20 = shl nuw nsw i32 %11, 13
  %21 = or i32 %19, %20
  %22 = or disjoint i32 %21, %10
  %23 = or i32 %22, 1845756928
  %24 = getelementptr inbounds nuw i8, ptr %0, i64 160
  %25 = load ptr, ptr %24, align 8, !tbaa !39
  %26 = getelementptr inbounds nuw i8, ptr %25, i64 4
  store ptr %26, ptr %24, align 8, !tbaa !39
  store i32 %23, ptr %25, align 4, !tbaa !48
  %27 = getelementptr inbounds nuw i8, ptr %0, i64 168
  %28 = load ptr, ptr %27, align 8, !tbaa !40
  %29 = icmp eq ptr %28, %26
  br i1 %29, label %30, label %_ZN4Luau7CodeGen3A6418AssemblyBuilderA646commitEv.exit

30:                                               ; preds = %16
  tail call void @_ZN4Luau7CodeGen3A6418AssemblyBuilderA646extendEv(ptr noundef nonnull align 8 dereferenceable(176) %0)
  br label %_ZN4Luau7CodeGen3A6418AssemblyBuilderA646commitEv.exit

_ZN4Luau7CodeGen3A6418AssemblyBuilderA646commitEv.exit: ; preds = %16, %30
  ret void
}